target datalayout = "e-m:e-p270:32:32-p271:32:32-p272:64:64-i64:64-i128:128-f80:128-n8:16:32:64-S128"
target triple = "x86_64-pc-linux-gnu"

%"class.cv::detail::tracking::TrackerContribFeature" = type { %"class.cv::detail::tracking::TrackerFeature", %"class.std::__cxx11::basic_string" }
%"class.cv::detail::tracking::TrackerFeature" = type { ptr }
%"class.std::__cxx11::basic_string" = type { %"struct.std::__cxx11::basic_string<char>::_Alloc_hider", i64, %union.anon }
%"struct.std::__cxx11::basic_string<char>::_Alloc_hider" = type { ptr }
%union.anon = type { i64, [8 x i8] }
%"class.std::__shared_count" = type { ptr }
%"struct.cv::detail::tracking::TrackerContribFeatureHAAR::Params" = type <{ i32, %"class.cv::Size_", i8, [3 x i8] }>
%"class.cv::Size_" = type { i32, i32 }
%"struct.cv::Ptr.15" = type { %"class.std::shared_ptr.16" }
%"class.std::shared_ptr.16" = type { %"class.std::__shared_ptr.17" }
%"class.std::__shared_ptr.17" = type { ptr, %"class.std::__shared_count" }
%"class.cv::detail::tracking::TrackerContribFeatureHAAR" = type { %"class.cv::detail::tracking::TrackerContribFeature", %"struct.cv::detail::tracking::TrackerContribFeatureHAAR::Params", %"struct.cv::Ptr.15" }
%"class.cv::detail::tracking::contrib_feature::CvHaarEvaluator" = type { %"class.cv::detail::tracking::contrib_feature::CvFeatureEvaluator", i8, %"class.cv::Mat", %"class.std::vector.27", %"class.cv::Mat" }
%"class.cv::detail::tracking::contrib_feature::CvFeatureEvaluator" = type { ptr, i32, i32, i32, %"class.cv::Size_", ptr, %"class.cv::Mat" }
%"class.std::vector.27" = type { %"struct.std::_Vector_base.28" }
%"struct.std::_Vector_base.28" = type { %"struct.std::_Vector_base<cv::detail::tracking::contrib_feature::CvHaarEvaluator::FeatureHaar, std::allocator<cv::detail::tracking::contrib_feature::CvHaarEvaluator::FeatureHaar>>::_Vector_impl" }
%"struct.std::_Vector_base<cv::detail::tracking::contrib_feature::CvHaarEvaluator::FeatureHaar, std::allocator<cv::detail::tracking::contrib_feature::CvHaarEvaluator::FeatureHaar>>::_Vector_impl" = type { %"struct.std::_Vector_base<cv::detail::tracking::contrib_feature::CvHaarEvaluator::FeatureHaar, std::allocator<cv::detail::tracking::contrib_feature::CvHaarEvaluator::FeatureHaar>>::_Vector_impl_data" }
%"struct.std::_Vector_base<cv::detail::tracking::contrib_feature::CvHaarEvaluator::FeatureHaar, std::allocator<cv::detail::tracking::contrib_feature::CvHaarEvaluator::FeatureHaar>>::_Vector_impl_data" = type { ptr, ptr, ptr }
%"class.cv::Mat" = type { i32, i32, i32, i32, ptr, ptr, ptr, ptr, ptr, ptr, %"struct.cv::MatSize", %"struct.cv::MatStep" }
%"struct.cv::MatSize" = type { ptr }
%"struct.cv::MatStep" = type { ptr, [2 x i64] }
%"class.cv::detail::tracking::contrib_feature::CvHaarEvaluator::FeatureHaar" = type { i32, i32, %"class.std::vector.32", float, float, %"class.std::vector.37", %"class.cv::Size_", %"class.cv::Size_", float, float, %"class.std::vector.37", %"class.std::vector.32" }
%"class.std::vector.37" = type { %"struct.std::_Vector_base.38" }
%"struct.std::_Vector_base.38" = type { %"struct.std::_Vector_base<cv::Rect_<int>, std::allocator<cv::Rect_<int>>>::_Vector_impl" }
%"struct.std::_Vector_base<cv::Rect_<int>, std::allocator<cv::Rect_<int>>>::_Vector_impl" = type { %"struct.std::_Vector_base<cv::Rect_<int>, std::allocator<cv::Rect_<int>>>::_Vector_impl_data" }
%"struct.std::_Vector_base<cv::Rect_<int>, std::allocator<cv::Rect_<int>>>::_Vector_impl_data" = type { ptr, ptr, ptr }
%"class.std::vector.32" = type { %"struct.std::_Vector_base.33" }
%"struct.std::_Vector_base.33" = type { %"struct.std::_Vector_base<float, std::allocator<float>>::_Vector_impl" }
%"struct.std::_Vector_base<float, std::allocator<float>>::_Vector_impl" = type { %"struct.std::_Vector_base<float, std::allocator<float>>::_Vector_impl_data" }
%"struct.std::_Vector_base<float, std::allocator<float>>::_Vector_impl_data" = type { ptr, ptr, ptr }

; Function Attrs: mustprogress nounwind uwtable
define linkonce_odr hidden noundef nonnull align 8 dereferenceable(136) ptr @_ZNSt6vectorIN2cv6detail8tracking15contrib_feature15CvHaarEvaluator11FeatureHaarESaIS5_EEixEm(ptr noundef nonnull align 8 dereferenceable(24) %0, i64 noundef %1) #4 comdat align 2 {
  %3 = alloca ptr, align 8
  %4 = alloca i64, align 8
  store ptr %0, ptr %3, align 8, !tbaa !147
  store i64 %1, ptr %4, align 8, !tbaa !12
  %5 = load ptr, ptr %3, align 8
  %6 = getelementptr inbounds nuw %"struct.std::_Vector_base.28", ptr %5, i32 0, i32 0
  %7 = getelementptr inbounds nuw %"struct.std::_Vector_base<cv::detail::tracking::contrib_feature::CvHaarEvaluator::FeatureHaar, std::allocator<cv::detail::tracking::contrib_feature::CvHaarEvaluator::FeatureHaar>>::_Vector_impl_data", ptr %6, i32 0, i32 0
  %8 = load ptr, ptr %7, align 8, !tbaa !149
  %9 = load i64, ptr %4, align 8, !tbaa !12
  %10 = getelementptr inbounds nuw %"class.cv::detail::tracking::contrib_feature::CvHaarEvaluator::FeatureHaar", ptr %8, i64 %9
  ret ptr %10
}

; Function Attrs: mustprogress nounwind uwtable
define linkonce_odr hidden noundef ptr @_ZNKSt12__shared_ptrIN2cv6detail8tracking15contrib_feature15CvHaarEvaluatorELN9__gnu_cxx12_Lock_policyE2EE3getEv(ptr noundef nonnull align 8 dereferenceable(16) %0) #4 comdat align 2 {
  %2 = alloca ptr, align 8
  store ptr %0, ptr %2, align 8, !tbaa !260
  %3 = load ptr, ptr %2, align 8
  %4 = getelementptr inbounds nuw %"class.std::__shared_ptr.17", ptr %3, i32 0, i32 0
  %5 = load ptr, ptr %4, align 8, !tbaa !262
  ret ptr %5
}

; Function Attrs: inlinehint mustprogress uwtable
define linkonce_odr hidden noundef nonnull align 8 dereferenceable(136) ptr @_ZN2cv6detail8tracking15contrib_feature15CvHaarEvaluator11FeatureHaaraSERKS4_(ptr noundef nonnull align 8 dereferenceable(136) %0, ptr noundef nonnull align 8 dereferenceable(136) %1) #9 comdat align 2 {
  %3 = alloca ptr, align 8
  %4 = alloca ptr, align 8
  store ptr %0, ptr %3, align 8, !tbaa !101
  store ptr %1, ptr %4, align 8, !tbaa !101
  %5 = load ptr, ptr %3, align 8
  %6 = getelementptr inbounds nuw %"class.cv::detail::tracking::contrib_feature::CvHaarEvaluator::FeatureHaar", ptr %5, i32 0, i32 0
  %7 = load ptr, ptr %4, align 8
  %8 = getelementptr inbounds nuw %"class.cv::detail::tracking::contrib_feature::CvHaarEvaluator::FeatureHaar", ptr %7, i32 0, i32 0
  call void @llvm.memcpy.p0.p0.i64(ptr align 8 %6, ptr align 8 %8, i64 8, i1 false)
  %9 = getelementptr inbounds nuw %"class.cv::detail::tracking::contrib_feature::CvHaarEvaluator::FeatureHaar", ptr %5, i32 0, i32 2
  %10 = load ptr, ptr %4, align 8, !tbaa !101
  %11 = getelementptr inbounds nuw %"class.cv::detail::tracking::contrib_feature::CvHaarEvaluator::FeatureHaar", ptr %10, i32 0, i32 2
  %12 = call noundef nonnull align 8 dereferenceable(24) ptr @_ZNSt6vectorIfSaIfEEaSERKS1_(ptr noundef nonnull align 8 dereferenceable(24) %9, ptr noundef nonnull align 8 dereferenceable(24) %11)
  %13 = getelementptr inbounds nuw %"class.cv::detail::tracking::contrib_feature::CvHaarEvaluator::FeatureHaar", ptr %5, i32 0, i32 3
  %14 = load ptr, ptr %4, align 8
  %15 = getelementptr inbounds nuw %"class.cv::detail::tracking::contrib_feature::CvHaarEvaluator::FeatureHaar", ptr %14, i32 0, i32 3
  call void @llvm.memcpy.p0.p0.i64(ptr align 8 %13, ptr align 8 %15, i64 8, i1 false)
  %16 = getelementptr inbounds nuw %"class.cv::detail::tracking::contrib_feature::CvHaarEvaluator::FeatureHaar", ptr %5, i32 0, i32 5
  %17 = load ptr, ptr %4, align 8, !tbaa !101
  %18 = getelementptr inbounds nuw %"class.cv::detail::tracking::contrib_feature::CvHaarEvaluator::FeatureHaar", ptr %17, i32 0, i32 5
  %19 = call noundef nonnull align 8 dereferenceable(24) ptr @_ZNSt6vectorIN2cv5Rect_IiEESaIS2_EEaSERKS4_(ptr noundef nonnull align 8 dereferenceable(24) %16, ptr noundef nonnull align 8 dereferenceable(24) %18)
  %20 = getelementptr inbounds nuw %"class.cv::detail::tracking::contrib_feature::CvHaarEvaluator::FeatureHaar", ptr %5, i32 0, i32 6
  %21 = load ptr, ptr %4, align 8
  %22 = getelementptr inbounds nuw %"class.cv::detail::tracking::contrib_feature::CvHaarEvaluator::FeatureHaar", ptr %21, i32 0, i32 6
  call void @llvm.memcpy.p0.p0.i64(ptr align 8 %20, ptr align 8 %22, i64 24, i1 false)
  %23 = getelementptr inbounds nuw %"class.cv::detail::tracking::contrib_feature::CvHaarEvaluator::FeatureHaar", ptr %5, i32 0, i32 10
  %24 = load ptr, ptr %4, align 8, !tbaa !101
  %25 = getelementptr inbounds nuw %"class.cv::detail::tracking::contrib_feature::CvHaarEvaluator::FeatureHaar", ptr %24, i32 0, i32 10
  %26 = call noundef nonnull align 8 dereferenceable(24) ptr @_ZNSt6vectorIN2cv5Rect_IiEESaIS2_EEaSERKS4_(ptr noundef nonnull align 8 dereferenceable(24) %23, ptr noundef nonnull align 8 dereferenceable(24) %25)
  %27 = getelementptr inbounds nuw %"class.cv::detail::tracking::contrib_feature::CvHaarEvaluator::FeatureHaar", ptr %5, i32 0, i32 11
  %28 = load ptr, ptr %4, align 8, !tbaa !101
  %29 = getelementptr inbounds nuw %"class.cv::detail::tracking::contrib_feature::CvHaarEvaluator::FeatureHaar", ptr %28, i32 0, i32 11
  %30 = call noundef nonnull align 8 dereferenceable(24) ptr @_ZNSt6vectorIfSaIfEEaSERKS1_(ptr noundef nonnull align 8 dereferenceable(24) %27, ptr noundef nonnull align 8 dereferenceable(24) %29)
  ret ptr %5
}

; Function Attrs: inlinehint mustprogress nounwind uwtable
define linkonce_odr hidden noundef nonnull align 8 dereferenceable(136) ptr @_ZN2cv6detail8tracking15contrib_feature15CvHaarEvaluator11getFeaturesEi(ptr noundef nonnull align 8 dereferenceable(360) %0, i32 noundef %1) #10 comdat align 2 {
  %3 = alloca ptr, align 8
  %4 = alloca i32, align 4
  store ptr %0, ptr %3, align 8, !tbaa !100
  store i32 %1, ptr %4, align 4, !tbaa !58
  %5 = load ptr, ptr %3, align 8
  %6 = getelementptr inbounds nuw %"class.cv::detail::tracking::contrib_feature::CvHaarEvaluator", ptr %5, i32 0, i32 3
  %7 = load i32, ptr %4, align 4, !tbaa !58
  %8 = sext i32 %7 to i64
  %9 = call noundef nonnull align 8 dereferenceable(136) ptr @_ZNSt6vectorIN2cv6detail8tracking15contrib_feature15CvHaarEvaluator11FeatureHaarESaIS5_EEixEm(ptr noundef nonnull align 8 dereferenceable(24) %6, i64 noundef %8) #3
  ret ptr %9
}

; Function Attrs: mustprogress nounwind uwtable
define linkonce_odr hidden noundef ptr @_ZNK2cv3PtrINS_6detail8tracking15contrib_feature15CvHaarEvaluatorEEptEv(ptr noundef nonnull align 8 dereferenceable(16) %0) #4 comdat align 2 {
  %2 = alloca ptr, align 8
  store ptr %0, ptr %2, align 8, !tbaa !92
  %3 = load ptr, ptr %2, align 8
  %4 = call noundef ptr @_ZNKSt12__shared_ptrIN2cv6detail8tracking15contrib_feature15CvHaarEvaluatorELN9__gnu_cxx12_Lock_policyE2EE3getEv(ptr noundef nonnull align 8 dereferenceable(16) %3) #3
  ret ptr %4
}

; Function Attrs: mustprogress uwtable
define noundef zeroext i1 @_ZN2cv6detail8tracking25TrackerContribFeatureHAAR11swapFeatureEii(ptr noundef nonnull align 8 dereferenceable(72) %0, i32 noundef %1, i32 noundef %2) #6 align 2 personality ptr @__gxx_personality_v0 {
  %4 = alloca ptr, align 8
  %5 = alloca i32, align 4
  %6 = alloca i32, align 4
  %7 = alloca %"class.cv::detail::tracking::contrib_feature::CvHaarEvaluator::FeatureHaar", align 8
  %8 = alloca ptr, align 8
  %9 = alloca i32, align 4
  store ptr %0, ptr %4, align 8, !tbaa !36
  store i32 %1, ptr %5, align 4, !tbaa !58
  store i32 %2, ptr %6, align 4, !tbaa !58
  %10 = load ptr, ptr %4, align 8
  call void @llvm.lifetime.start.p0(i64 136, ptr %7) #3
  %11 = getelementptr inbounds nuw %"class.cv::detail::tracking::TrackerContribFeatureHAAR", ptr %10, i32 0, i32 2
  %12 = call noundef ptr @_ZNK2cv3PtrINS_6detail8tracking15contrib_feature15CvHaarEvaluatorEEptEv(ptr noundef nonnull align 8 dereferenceable(16) %11) #3
  %13 = load i32, ptr %5, align 4, !tbaa !58
  %14 = call noundef nonnull align 8 dereferenceable(136) ptr @_ZN2cv6detail8tracking15contrib_feature15CvHaarEvaluator11getFeaturesEi(ptr noundef nonnull align 8 dereferenceable(360) %12, i32 noundef %13)
  call void @_ZN2cv6detail8tracking15contrib_feature15CvHaarEvaluator11FeatureHaarC2ERKS4_(ptr noundef nonnull align 8 dereferenceable(136) %7, ptr noundef nonnull align 8 dereferenceable(136) %14)
  %15 = getelementptr inbounds nuw %"class.cv::detail::tracking::TrackerContribFeatureHAAR", ptr %10, i32 0, i32 2
  %16 = call noundef ptr @_ZNK2cv3PtrINS_6detail8tracking15contrib_feature15CvHaarEvaluatorEEptEv(ptr noundef nonnull align 8 dereferenceable(16) %15) #3
  %17 = load i32, ptr %6, align 4, !tbaa !58
  %18 = invoke noundef nonnull align 8 dereferenceable(136) ptr @_ZN2cv6detail8tracking15contrib_feature15CvHaarEvaluator11getFeaturesEi(ptr noundef nonnull align 8 dereferenceable(360) %16, i32 noundef %17)
          to label %19 unwind label %34

19:                                               ; preds = %3
  %20 = getelementptr inbounds nuw %"class.cv::detail::tracking::TrackerContribFeatureHAAR", ptr %10, i32 0, i32 2
  %21 = call noundef ptr @_ZNK2cv3PtrINS_6detail8tracking15contrib_feature15CvHaarEvaluatorEEptEv(ptr noundef nonnull align 8 dereferenceable(16) %20) #3
  %22 = load i32, ptr %5, align 4, !tbaa !58
  %23 = invoke noundef nonnull align 8 dereferenceable(136) ptr @_ZN2cv6detail8tracking15contrib_feature15CvHaarEvaluator11getFeaturesEi(ptr noundef nonnull align 8 dereferenceable(360) %21, i32 noundef %22)
          to label %24 unwind label %34

24:                                               ; preds = %19
  %25 = invoke noundef nonnull align 8 dereferenceable(136) ptr @_ZN2cv6detail8tracking15contrib_feature15CvHaarEvaluator11FeatureHaaraSERKS4_(ptr noundef nonnull align 8 dereferenceable(136) %23, ptr noundef nonnull align 8 dereferenceable(136) %18)
          to label %26 unwind label %34

26:                                               ; preds = %24
  %27 = getelementptr inbounds nuw %"class.cv::detail::tracking::TrackerContribFeatureHAAR", ptr %10, i32 0, i32 2
  %28 = call noundef ptr @_ZNK2cv3PtrINS_6detail8tracking15contrib_feature15CvHaarEvaluatorEEptEv(ptr noundef nonnull align 8 dereferenceable(16) %27) #3
  %29 = load i32, ptr %6, align 4, !tbaa !58
  %30 = invoke noundef nonnull align 8 dereferenceable(136) ptr @_ZN2cv6detail8tracking15contrib_feature15CvHaarEvaluator11getFeaturesEi(ptr noundef nonnull align 8 dereferenceable(360) %28, i32 noundef %29)
          to label %31 unwind label %34

31:                                               ; preds = %26
  %32 = invoke noundef nonnull align 8 dereferenceable(136) ptr @_ZN2cv6detail8tracking15contrib_feature15CvHaarEvaluator11FeatureHaaraSERKS4_(ptr noundef nonnull align 8 dereferenceable(136) %30, ptr noundef nonnull align 8 dereferenceable(136) %7)
          to label %33 unwind label %34

33:                                               ; preds = %31
  call void @_ZN2cv6detail8tracking15contrib_feature15CvHaarEvaluator11FeatureHaarD2Ev(ptr noundef nonnull align 8 dereferenceable(136) %7) #3
  call void @llvm.lifetime.end.p0(i64 136, ptr %7) #3
  ret i1 true

34:                                               ; preds = %31, %26, %24, %19, %3
  %35 = landingpad { ptr, i32 }
          cleanup
  %36 = extractvalue { ptr, i32 } %35, 0
  store ptr %36, ptr %8, align 8
  %37 = extractvalue { ptr, i32 } %35, 1
  store i32 %37, ptr %9, align 4
  call void @_ZN2cv6detail8tracking15contrib_feature15CvHaarEvaluator11FeatureHaarD2Ev(ptr noundef nonnull align 8 dereferenceable(136) %7) #3
  call void @llvm.lifetime.end.p0(i64 136, ptr %7) #3
  br label %38

38:                                               ; preds = %34
  %39 = load ptr, ptr %8, align 8
  %40 = load i32, ptr %9, align 4
  %41 = insertvalue { ptr, i32 } poison, ptr %39, 0
  %42 = insertvalue { ptr, i32 } %41, i32 %40, 1
  resume { ptr, i32 } %42
}