; Function Attrs: mustprogress uwtable
define noundef zeroext i1 @_ZN2cv6detail8tracking25TrackerContribFeatureHAAR11swapFeatureEii(ptr noundef nonnull readonly align 8 captures(none) dereferenceable(72) %0, i32 noundef %1, i32 noundef %2) local_unnamed_addr #6 align 2 personality ptr @__gxx_personality_v0 {
  %4 = alloca %"class.cv::detail::tracking::contrib_feature::CvHaarEvaluator::FeatureHaar", align 8
  call void @llvm.lifetime.start.p0(i64 136, ptr nonnull %4) #26
  %5 = getelementptr inbounds nuw i8, ptr %0, i64 56
  %6 = load ptr, ptr %5, align 8, !tbaa !80
  %7 = getelementptr inbounds nuw i8, ptr %6, i64 240
  %8 = sext i32 %1 to i64
  %9 = load ptr, ptr %7, align 8, !tbaa !82
  %10 = getelementptr inbounds nuw %"class.cv::detail::tracking::contrib_feature::CvHaarEvaluator::FeatureHaar", ptr %9, i64 %8
  call void @_ZN2cv6detail8tracking15contrib_feature15CvHaarEvaluator11FeatureHaarC2ERKS4_(ptr noundef nonnull align 8 dereferenceable(136) %4, ptr noundef nonnull align 8 dereferenceable(136) %10)
  %11 = load ptr, ptr %5, align 8, !tbaa !80
  %12 = getelementptr inbounds nuw i8, ptr %11, i64 240
  %13 = sext i32 %2 to i64
  %14 = load ptr, ptr %12, align 8, !tbaa !82
  %15 = getelementptr inbounds nuw %"class.cv::detail::tracking::contrib_feature::CvHaarEvaluator::FeatureHaar", ptr %14, i64 %13
  %16 = getelementptr inbounds nuw %"class.cv::detail::tracking::contrib_feature::CvHaarEvaluator::FeatureHaar", ptr %14, i64 %8
  %17 = load i64, ptr %15, align 8
  store i64 %17, ptr %16, align 8
  %18 = getelementptr inbounds nuw i8, ptr %16, i64 8
  %19 = getelementptr inbounds nuw i8, ptr %15, i64 8
  %20 = invoke noundef nonnull align 8 dereferenceable(24) ptr @_ZNSt6vectorIfSaIfEEaSERKS1_(ptr noundef nonnull align 8 dereferenceable(24) %18, ptr noundef nonnull align 8 dereferenceable(24) %19)
          to label %.noexc unwind label %65

.noexc:                                           ; preds = %3
  %21 = getelementptr inbounds nuw i8, ptr %16, i64 32
  %22 = getelementptr inbounds nuw i8, ptr %15, i64 32
  %23 = load i64, ptr %22, align 8
  store i64 %23, ptr %21, align 8
  %24 = getelementptr inbounds nuw i8, ptr %16, i64 40
  %25 = getelementptr inbounds nuw i8, ptr %15, i64 40
  %26 = invoke noundef nonnull align 8 dereferenceable(24) ptr @_ZNSt6vectorIN2cv5Rect_IiEESaIS2_EEaSERKS4_(ptr noundef nonnull align 8 dereferenceable(24) %24, ptr noundef nonnull align 8 dereferenceable(24) %25)
          to label %.noexc6 unwind label %65

.noexc6:                                          ; preds = %.noexc
  %27 = getelementptr inbounds nuw i8, ptr %16, i64 64
  %28 = getelementptr inbounds nuw i8, ptr %15, i64 64
  call void @llvm.memcpy.p0.p0.i64(ptr noundef nonnull align 8 dereferenceable(24) %27, ptr noundef nonnull align 8 dereferenceable(24) %28, i64 24, i1 false)
  %29 = getelementptr inbounds nuw i8, ptr %16, i64 88
  %30 = getelementptr inbounds nuw i8, ptr %15, i64 88
  %31 = invoke noundef nonnull align 8 dereferenceable(24) ptr @_ZNSt6vectorIN2cv5Rect_IiEESaIS2_EEaSERKS4_(ptr noundef nonnull align 8 dereferenceable(24) %29, ptr noundef nonnull align 8 dereferenceable(24) %30)
          to label %.noexc7 unwind label %65

.noexc7:                                          ; preds = %.noexc6
  %32 = getelementptr inbounds nuw i8, ptr %16, i64 112
  %33 = getelementptr inbounds nuw i8, ptr %15, i64 112
  %34 = invoke noundef nonnull align 8 dereferenceable(24) ptr @_ZNSt6vectorIfSaIfEEaSERKS1_(ptr noundef nonnull align 8 dereferenceable(24) %32, ptr noundef nonnull align 8 dereferenceable(24) %33)
          to label %_ZN2cv6detail8tracking15contrib_feature15CvHaarEvaluator11FeatureHaaraSERKS4_.exit unwind label %65

_ZN2cv6detail8tracking15contrib_feature15CvHaarEvaluator11FeatureHaaraSERKS4_.exit: ; preds = %.noexc7
  %35 = load ptr, ptr %5, align 8, !tbaa !80
  %36 = getelementptr inbounds nuw i8, ptr %35, i64 240
  %37 = load ptr, ptr %36, align 8, !tbaa !82
  %38 = getelementptr inbounds nuw %"class.cv::detail::tracking::contrib_feature::CvHaarEvaluator::FeatureHaar", ptr %37, i64 %13
  %39 = load i64, ptr %4, align 8
  store i64 %39, ptr %38, align 8
  %40 = getelementptr inbounds nuw i8, ptr %38, i64 8
  %41 = getelementptr inbounds nuw i8, ptr %4, i64 8
  %42 = invoke noundef nonnull align 8 dereferenceable(24) ptr @_ZNSt6vectorIfSaIfEEaSERKS1_(ptr noundef nonnull align 8 dereferenceable(24) %40, ptr noundef nonnull align 8 dereferenceable(24) %41)
          to label %.noexc9 unwind label %65

.noexc9:                                          ; preds = %_ZN2cv6detail8tracking15contrib_feature15CvHaarEvaluator11FeatureHaaraSERKS4_.exit
  %43 = getelementptr inbounds nuw i8, ptr %38, i64 32
  %44 = getelementptr inbounds nuw i8, ptr %4, i64 32
  %45 = load i64, ptr %44, align 8
  store i64 %45, ptr %43, align 8
  %46 = getelementptr inbounds nuw i8, ptr %38, i64 40
  %47 = getelementptr inbounds nuw i8, ptr %4, i64 40
  %48 = invoke noundef nonnull align 8 dereferenceable(24) ptr @_ZNSt6vectorIN2cv5Rect_IiEESaIS2_EEaSERKS4_(ptr noundef nonnull align 8 dereferenceable(24) %46, ptr noundef nonnull align 8 dereferenceable(24) %47)
          to label %.noexc10 unwind label %65

.noexc10:                                         ; preds = %.noexc9
  %49 = getelementptr inbounds nuw i8, ptr %38, i64 64
  %50 = getelementptr inbounds nuw i8, ptr %4, i64 64
  call void @llvm.memcpy.p0.p0.i64(ptr noundef nonnull align 8 dereferenceable(24) %49, ptr noundef nonnull align 8 dereferenceable(24) %50, i64 24, i1 false)
  %51 = getelementptr inbounds nuw i8, ptr %38, i64 88
  %52 = getelementptr inbounds nuw i8, ptr %4, i64 88
  %53 = invoke noundef nonnull align 8 dereferenceable(24) ptr @_ZNSt6vectorIN2cv5Rect_IiEESaIS2_EEaSERKS4_(ptr noundef nonnull align 8 dereferenceable(24) %51, ptr noundef nonnull align 8 dereferenceable(24) %52)
          to label %.noexc11 unwind label %65

.noexc11:                                         ; preds = %.noexc10
  %54 = getelementptr inbounds nuw i8, ptr %38, i64 112
  %55 = getelementptr inbounds nuw i8, ptr %4, i64 112
  %56 = invoke noundef nonnull align 8 dereferenceable(24) ptr @_ZNSt6vectorIfSaIfEEaSERKS1_(ptr noundef nonnull align 8 dereferenceable(24) %54, ptr noundef nonnull align 8 dereferenceable(24) %55)
          to label %_ZN2cv6detail8tracking15contrib_feature15CvHaarEvaluator11FeatureHaaraSERKS4_.exit13 unwind label %65

_ZN2cv6detail8tracking15contrib_feature15CvHaarEvaluator11FeatureHaaraSERKS4_.exit13: ; preds = %.noexc11
  %57 = load ptr, ptr %55, align 8, !tbaa !85
  %.not.i.i.i.i = icmp eq ptr %57, null
  br i1 %.not.i.i.i.i, label %_ZNSt6vectorIfSaIfEED2Ev.exit.i, label %58

58:                                               ; preds = %_ZN2cv6detail8tracking15contrib_feature15CvHaarEvaluator11FeatureHaaraSERKS4_.exit13
  call void @_ZdlPv(ptr noundef nonnull %57) #25
  br label %_ZNSt6vectorIfSaIfEED2Ev.exit.i

_ZNSt6vectorIfSaIfEED2Ev.exit.i:                  ; preds = %58, %_ZN2cv6detail8tracking15contrib_feature15CvHaarEvaluator11FeatureHaaraSERKS4_.exit13
  %59 = load ptr, ptr %52, align 8, !tbaa !88
  %.not.i.i.i1.i = icmp eq ptr %59, null
  br i1 %.not.i.i.i1.i, label %_ZNSt6vectorIN2cv5Rect_IiEESaIS2_EED2Ev.exit.i, label %60

60:                                               ; preds = %_ZNSt6vectorIfSaIfEED2Ev.exit.i
  call void @_ZdlPv(ptr noundef nonnull %59) #25
  br label %_ZNSt6vectorIN2cv5Rect_IiEESaIS2_EED2Ev.exit.i

_ZNSt6vectorIN2cv5Rect_IiEESaIS2_EED2Ev.exit.i:   ; preds = %60, %_ZNSt6vectorIfSaIfEED2Ev.exit.i
  %61 = load ptr, ptr %47, align 8, !tbaa !88
  %.not.i.i.i2.i = icmp eq ptr %61, null
  br i1 %.not.i.i.i2.i, label %_ZNSt6vectorIN2cv5Rect_IiEESaIS2_EED2Ev.exit3.i, label %62

62:                                               ; preds = %_ZNSt6vectorIN2cv5Rect_IiEESaIS2_EED2Ev.exit.i
  call void @_ZdlPv(ptr noundef nonnull %61) #25
  br label %_ZNSt6vectorIN2cv5Rect_IiEESaIS2_EED2Ev.exit3.i

_ZNSt6vectorIN2cv5Rect_IiEESaIS2_EED2Ev.exit3.i:  ; preds = %62, %_ZNSt6vectorIN2cv5Rect_IiEESaIS2_EED2Ev.exit.i
  %63 = load ptr, ptr %41, align 8, !tbaa !85
  %.not.i.i.i4.i = icmp eq ptr %63, null
  br i1 %.not.i.i.i4.i, label %_ZN2cv6detail8tracking15contrib_feature15CvHaarEvaluator11FeatureHaarD2Ev.exit, label %64

64:                                               ; preds = %_ZNSt6vectorIN2cv5Rect_IiEESaIS2_EED2Ev.exit3.i
  call void @_ZdlPv(ptr noundef nonnull %63) #25
  br label %_ZN2cv6detail8tracking15contrib_feature15CvHaarEvaluator11FeatureHaarD2Ev.exit

_ZN2cv6detail8tracking15contrib_feature15CvHaarEvaluator11FeatureHaarD2Ev.exit: ; preds = %_ZNSt6vectorIN2cv5Rect_IiEESaIS2_EED2Ev.exit3.i, %64
  call void @llvm.lifetime.end.p0(i64 136, ptr nonnull %4) #26
  ret i1 true

65:                                               ; preds = %.noexc11, %.noexc10, %.noexc9, %_ZN2cv6detail8tracking15contrib_feature15CvHaarEvaluator11FeatureHaaraSERKS4_.exit, %.noexc7, %.noexc6, %.noexc, %3
  %66 = landingpad { ptr, i32 }
          cleanup
  call void @_ZN2cv6detail8tracking15contrib_feature15CvHaarEvaluator11FeatureHaarD2Ev(ptr noundef nonnull align 8 dereferenceable(136) %4) #26
  call void @llvm.lifetime.end.p0(i64 136, ptr nonnull %4) #26
  resume { ptr, i32 } %66
}